target datalayout = "e-m:e-p270:32:32-p271:32:32-p272:64:64-i64:64-i128:128-f80:128-n8:16:32:64-S128"
target triple = "x86_64-pc-linux-gnu"

%"class.xgboost::Value" = type { ptr, %"class.xgboost::IntrusivePtrCell", i64 }
%"class.xgboost::IntrusivePtrCell" = type { %"struct.std::atomic" }
%"struct.std::atomic" = type { %"struct.std::__atomic_base" }
%"struct.std::__atomic_base" = type { i32 }
%"class.xgboost::JsonNumber" = type <{ %"class.xgboost::Value", float, [4 x i8] }>

; Function Attrs: mustprogress nounwind uwtable
define linkonce_odr noundef i64 @_ZNK7xgboost5Value4TypeEv(ptr noundef nonnull align 8 dereferenceable(24) %0) #5 comdat align 2 {
  %2 = alloca ptr, align 8
  store ptr %0, ptr %2, align 8, !tbaa !10
  %3 = load ptr, ptr %2, align 8
  %4 = getelementptr inbounds nuw %"class.xgboost::Value", ptr %3, i32 0, i32 2
  %5 = load i64, ptr %4, align 8, !tbaa !14
  ret i64 %5
}

; Function Attrs: mustprogress nounwind uwtable
define linkonce_odr noundef zeroext i1 @_ZN7xgboost10JsonNumber9IsClassOfEPKNS_5ValueE(ptr noundef %0) #5 comdat align 2 {
  %2 = alloca ptr, align 8
  store ptr %0, ptr %2, align 8, !tbaa !10
  %3 = load ptr, ptr %2, align 8, !tbaa !10
  %4 = call noundef i64 @_ZNK7xgboost5Value4TypeEv(ptr noundef nonnull align 8 dereferenceable(24) %3)
  %5 = icmp eq i64 %4, 1
  ret i1 %5
}

; Function Attrs: mustprogress nounwind uwtable
define linkonce_odr noundef zeroext i1 @_ZSt5isnanf(float noundef %0) #5 comdat {
  %2 = alloca float, align 4
  store float %0, ptr %2, align 4, !tbaa !30
  %3 = load float, ptr %2, align 4, !tbaa !30
  %4 = call i1 @llvm.is.fpclass.f32(float %3, i32 3)
  ret i1 %4
}

; Function Attrs: mustprogress nounwind uwtable
define linkonce_odr noundef zeroext i1 @_ZSt5isinff(float noundef %0) #5 comdat {
  %2 = alloca float, align 4
  store float %0, ptr %2, align 4, !tbaa !30
  %3 = load float, ptr %2, align 4, !tbaa !30
  %4 = call i1 @llvm.is.fpclass.f32(float %3, i32 516)
  ret i1 %4
}

; Function Attrs: mustprogress nounwind uwtable
define linkonce_odr noundef nonnull align 4 dereferenceable(4) ptr @_ZNKR7xgboost10JsonNumber9GetNumberEv(ptr noundef nonnull align 8 dereferenceable(28) %0) #5 comdat align 2 {
  %2 = alloca ptr, align 8
  store ptr %0, ptr %2, align 8, !tbaa !142
  %3 = load ptr, ptr %2, align 8
  %4 = getelementptr inbounds nuw %"class.xgboost::JsonNumber", ptr %3, i32 0, i32 1
  ret ptr %4
}

; Function Attrs: mustprogress uwtable
define linkonce_odr noundef zeroext i1 @_ZN7xgboost3IsAINS_10JsonNumberEEEbPKNS_5ValueE(ptr noundef %0) #4 comdat {
  %2 = alloca ptr, align 8
  store ptr %0, ptr %2, align 8, !tbaa !10
  %3 = load ptr, ptr %2, align 8, !tbaa !10
  %4 = call noundef zeroext i1 @_ZN7xgboost10JsonNumber9IsClassOfEPKNS_5ValueE(ptr noundef %3)
  ret i1 %4
}

; Function Attrs: mustprogress uwtable
define noundef zeroext i1 @_ZNK7xgboost10JsonNumbereqERKNS_5ValueE(ptr noundef nonnull align 8 dereferenceable(28) %0, ptr noundef nonnull align 8 dereferenceable(24) %1) unnamed_addr #4 align 2 {
  %3 = alloca i1, align 1
  %4 = alloca ptr, align 8
  %5 = alloca ptr, align 8
  %6 = alloca float, align 4
  %7 = alloca i32, align 4
  store ptr %0, ptr %4, align 8, !tbaa !142
  store ptr %1, ptr %5, align 8, !tbaa !10
  %8 = load ptr, ptr %4, align 8
  %9 = load ptr, ptr %5, align 8, !tbaa !10
  %10 = call noundef zeroext i1 @_ZN7xgboost3IsAINS_10JsonNumberEEEbPKNS_5ValueE(ptr noundef %9)
  br i1 %10, label %12, label %11

11:                                               ; preds = %2
  store i1 false, ptr %3, align 1
  br label %37

12:                                               ; preds = %2
  call void @llvm.lifetime.start.p0(i64 4, ptr %6) #3
  %13 = load ptr, ptr %5, align 8, !tbaa !10
  %14 = call noundef ptr @_ZN7xgboost4CastIKNS_10JsonNumberEKNS_5ValueEEEPT_PT0_(ptr noundef %13)
  %15 = call noundef nonnull align 4 dereferenceable(4) ptr @_ZNKR7xgboost10JsonNumber9GetNumberEv(ptr noundef nonnull align 8 dereferenceable(28) %14)
  %16 = load float, ptr %15, align 4, !tbaa !30
  store float %16, ptr %6, align 4, !tbaa !30
  %17 = getelementptr inbounds nuw %"class.xgboost::JsonNumber", ptr %8, i32 0, i32 1
  %18 = load float, ptr %17, align 8, !tbaa !173
  %19 = call noundef zeroext i1 @_ZSt5isinff(float noundef %18)
  br i1 %19, label %20, label %23

20:                                               ; preds = %12
  %21 = load float, ptr %6, align 4, !tbaa !30
  %22 = call noundef zeroext i1 @_ZSt5isinff(float noundef %21)
  store i1 %22, ptr %3, align 1
  store i32 1, ptr %7, align 4
  br label %36

23:                                               ; preds = %12
  %24 = getelementptr inbounds nuw %"class.xgboost::JsonNumber", ptr %8, i32 0, i32 1
  %25 = load float, ptr %24, align 8, !tbaa !173
  %26 = call noundef zeroext i1 @_ZSt5isnanf(float noundef %25)
  br i1 %26, label %27, label %30

27:                                               ; preds = %23
  %28 = load float, ptr %6, align 4, !tbaa !30
  %29 = call noundef zeroext i1 @_ZSt5isnanf(float noundef %28)
  store i1 %29, ptr %3, align 1
  store i32 1, ptr %7, align 4
  br label %36

30:                                               ; preds = %23
  %31 = getelementptr inbounds nuw %"class.xgboost::JsonNumber", ptr %8, i32 0, i32 1
  %32 = load float, ptr %31, align 8, !tbaa !173
  %33 = load float, ptr %6, align 4, !tbaa !30
  %34 = fsub float %32, %33
  %35 = fcmp oeq float %34, 0.000000e+00
  store i1 %35, ptr %3, align 1
  store i32 1, ptr %7, align 4
  br label %36

36:                                               ; preds = %30, %27, %20
  call void @llvm.lifetime.end.p0(i64 4, ptr %6) #3
  br label %37

37:                                               ; preds = %36, %11
  %38 = load i1, ptr %3, align 1
  ret i1 %38
}