; Function Attrs: mustprogress uwtable
define noundef zeroext i1 @_ZNK7xgboost10JsonNumbereqERKNS_5ValueE(ptr noundef nonnull readonly align 8 captures(none) dereferenceable(28) %0, ptr noundef nonnull align 8 dereferenceable(24) %1) unnamed_addr #3 align 2 {
  %3 = getelementptr inbounds nuw i8, ptr %1, i64 16
  %4 = load i64, ptr %3, align 8, !tbaa !8
  %5 = icmp eq i64 %4, 1
  br i1 %5, label %6, label %23

6:                                                ; preds = %2
  %7 = tail call noundef ptr @_ZN7xgboost4CastIKNS_10JsonNumberEKNS_5ValueEEEPT_PT0_(ptr noundef nonnull %1)
  %8 = getelementptr inbounds nuw i8, ptr %7, i64 24
  %9 = load float, ptr %8, align 4, !tbaa !21
  %10 = getelementptr inbounds nuw i8, ptr %0, i64 24
  %11 = load float, ptr %10, align 8, !tbaa !194
  %12 = tail call float @llvm.fabs.f32(float %11)
  %13 = fcmp oeq float %12, 0x7FF0000000000000
  br i1 %13, label %14, label %17

14:                                               ; preds = %6
  %15 = tail call float @llvm.fabs.f32(float %9)
  %16 = fcmp oeq float %15, 0x7FF0000000000000
  br label %23

17:                                               ; preds = %6
  %18 = fcmp uno float %11, 0.000000e+00
  br i1 %18, label %19, label %21

19:                                               ; preds = %17
  %20 = fcmp uno float %9, 0.000000e+00
  br label %23

21:                                               ; preds = %17
  %22 = fcmp oeq float %11, %9
  br label %23

23:                                               ; preds = %14, %19, %21, %2
  %.0 = phi i1 [ false, %2 ], [ %16, %14 ], [ %20, %19 ], [ %22, %21 ]
  ret i1 %.0
}